target datalayout = "e-m:e-p270:32:32-p271:32:32-p272:64:64-i64:64-i128:128-f80:128-n8:16:32:64-S128"
target triple = "x86_64-pc-linux-gnu"

%"class.cv::detail::tracking::online_boosting::WeakClassifierHaarFeature" = type { ptr, float, float, ptr }

@_ZN2cv6detail8tracking15online_boosting19ClassifierThresholdC1EPNS2_26EstimatedGaussDistributionES5_ = hidden unnamed_addr alias void (ptr, ptr, ptr), ptr @_ZN2cv6detail8tracking15online_boosting19ClassifierThresholdC2EPNS2_26EstimatedGaussDistributionES5_

; Function Attrs: mustprogress uwtable
define hidden void @_ZN2cv6detail8tracking15online_boosting25WeakClassifierHaarFeature24generateRandomClassifierEPNS2_26EstimatedGaussDistributionES5_(ptr noundef nonnull align 8 dereferenceable(24) %0, ptr noundef %1, ptr noundef %2) #4 align 2 personality ptr @__gxx_personality_v0 {
  %4 = alloca ptr, align 8
  %5 = alloca ptr, align 8
  %6 = alloca ptr, align 8
  %7 = alloca ptr, align 8
  %8 = alloca i32, align 4
  store ptr %0, ptr %4, align 8, !tbaa !120
  store ptr %1, ptr %5, align 8, !tbaa !157
  store ptr %2, ptr %6, align 8, !tbaa !157
  %9 = load ptr, ptr %4, align 8
  %10 = call noalias noundef nonnull ptr @_Znwm(i64 noundef 32) #18
  %11 = load ptr, ptr %5, align 8, !tbaa !157
  %12 = load ptr, ptr %6, align 8, !tbaa !157
  invoke void @_ZN2cv6detail8tracking15online_boosting19ClassifierThresholdC1EPNS2_26EstimatedGaussDistributionES5_(ptr noundef nonnull align 8 dereferenceable(32) %10, ptr noundef %11, ptr noundef %12)
          to label %13 unwind label %15

13:                                               ; preds = %3
  %14 = getelementptr inbounds nuw %"class.cv::detail::tracking::online_boosting::WeakClassifierHaarFeature", ptr %9, i32 0, i32 3
  store ptr %10, ptr %14, align 8, !tbaa !146
  ret void

15:                                               ; preds = %3
  %16 = landingpad { ptr, i32 }
          cleanup
  %17 = extractvalue { ptr, i32 } %16, 0
  store ptr %17, ptr %7, align 8
  %18 = extractvalue { ptr, i32 } %16, 1
  store i32 %18, ptr %8, align 4
  call void @_ZdlPv(ptr noundef %10) #19
  br label %19

19:                                               ; preds = %15
  %20 = load ptr, ptr %7, align 8
  %21 = load i32, ptr %8, align 4
  %22 = insertvalue { ptr, i32 } poison, ptr %20, 0
  %23 = insertvalue { ptr, i32 } %22, i32 %21, 1
  resume { ptr, i32 } %23
}