; Function Attrs: mustprogress uwtable
define hidden void @_ZN2cv6detail8tracking15online_boosting25WeakClassifierHaarFeature24generateRandomClassifierEPNS2_26EstimatedGaussDistributionES5_(ptr noundef nonnull writeonly align 8 captures(none) dereferenceable(24) initializes((16, 24)) %0, ptr noundef %1, ptr noundef %2) local_unnamed_addr #3 align 2 personality ptr @__gxx_personality_v0 {
  %4 = tail call noalias noundef nonnull dereferenceable(32) ptr @_Znwm(i64 noundef 32) #25
  store ptr getelementptr inbounds nuw inrange(-16, 16) (i8, ptr @_ZTVN2cv6detail8tracking15online_boosting19ClassifierThresholdE, i64 16), ptr %4, align 8, !tbaa !3
  %5 = getelementptr inbounds nuw i8, ptr %4, i64 8
  store ptr %1, ptr %5, align 8, !tbaa !123
  %6 = getelementptr inbounds nuw i8, ptr %4, i64 16
  store ptr %2, ptr %6, align 8, !tbaa !131
  %7 = getelementptr inbounds nuw i8, ptr %4, i64 24
  store float 0.000000e+00, ptr %7, align 8, !tbaa !89
  %8 = getelementptr inbounds nuw i8, ptr %4, i64 28
  store i32 0, ptr %8, align 4, !tbaa !86
  %9 = getelementptr inbounds nuw i8, ptr %0, i64 16
  store ptr %4, ptr %9, align 8, !tbaa !83
  ret void
}